target datalayout = "e-m:e-p270:32:32-p271:32:32-p272:64:64-i64:64-i128:128-f80:128-n8:16:32:64-S128"
target triple = "x86_64-pc-linux-gnu"

%"class.ZXing::GenericGF" = type { i32, i32, %"class.std::vector", %"class.std::vector" }
%"class.std::vector" = type { %"struct.std::_Vector_base" }
%"struct.std::_Vector_base" = type { %"struct.std::_Vector_base<short, std::allocator<short>>::_Vector_impl" }
%"struct.std::_Vector_base<short, std::allocator<short>>::_Vector_impl" = type { %"struct.std::_Vector_base<short, std::allocator<short>>::_Vector_impl_data" }
%"struct.std::_Vector_base<short, std::allocator<short>>::_Vector_impl_data" = type { ptr, ptr, ptr }

@__dso_handle = external hidden global i8
@_ZZN5ZXing9GenericGF10AztecData8EvE4inst = internal global %"class.ZXing::GenericGF" zeroinitializer, align 8
@_ZGVZN5ZXing9GenericGF10AztecData8EvE4inst = internal global i64 0, align 8
@_ZN5ZXing9GenericGFC1Eiii = unnamed_addr alias void (ptr, i32, i32, i32), ptr @_ZN5ZXing9GenericGFC2Eiii

; Function Attrs: mustprogress uwtable
define noundef nonnull align 8 dereferenceable(56) ptr @_ZN5ZXing9GenericGF10AztecData8Ev() #0 align 2 personality ptr @__gxx_personality_v0 {
  %1 = alloca ptr, align 8
  %2 = alloca i32, align 4
  %3 = load atomic i8, ptr @_ZGVZN5ZXing9GenericGF10AztecData8EvE4inst acquire, align 8
  %4 = icmp eq i8 %3, 0
  br i1 %4, label %5, label %11, !prof !3

5:                                                ; preds = %0
  %6 = call i32 @__cxa_guard_acquire(ptr @_ZGVZN5ZXing9GenericGF10AztecData8EvE4inst) #1
  %7 = icmp ne i32 %6, 0
  br i1 %7, label %8, label %11

8:                                                ; preds = %5
  invoke void @_ZN5ZXing9GenericGFC1Eiii(ptr noundef nonnull align 8 dereferenceable(56) @_ZZN5ZXing9GenericGF10AztecData8EvE4inst, i32 noundef 301, i32 noundef 256, i32 noundef 1)
          to label %9 unwind label %12

9:                                                ; preds = %8
  %10 = call i32 @__cxa_atexit(ptr @_ZN5ZXing9GenericGFD2Ev, ptr @_ZZN5ZXing9GenericGF10AztecData8EvE4inst, ptr @__dso_handle) #1
  call void @__cxa_guard_release(ptr @_ZGVZN5ZXing9GenericGF10AztecData8EvE4inst) #1
  br label %11

11:                                               ; preds = %9, %5, %0
  ret ptr @_ZZN5ZXing9GenericGF10AztecData8EvE4inst

12:                                               ; preds = %8
  %13 = landingpad { ptr, i32 }
          cleanup
  %14 = extractvalue { ptr, i32 } %13, 0
  store ptr %14, ptr %1, align 8
  %15 = extractvalue { ptr, i32 } %13, 1
  store i32 %15, ptr %2, align 4
  call void @__cxa_guard_abort(ptr @_ZGVZN5ZXing9GenericGF10AztecData8EvE4inst) #1
  br label %16

16:                                               ; preds = %12
  %17 = load ptr, ptr %1, align 8
  %18 = load i32, ptr %2, align 4
  %19 = insertvalue { ptr, i32 } poison, ptr %17, 0
  %20 = insertvalue { ptr, i32 } %19, i32 %18, 1
  resume { ptr, i32 } %20
}